; Function Attrs: mustprogress nofree norecurse nosync nounwind uwtable
define void @_ZN6google8protobuf9Timestamp12InternalSwapEPS1_(ptr nocapture noundef nonnull align 8 dereferenceable(32) %this, ptr noalias nocapture noundef %other) local_unnamed_addr #10 align 2 {
entry:
  %_internal_metadata_ = getelementptr inbounds i8, ptr %this, i64 8
  %_internal_metadata_2 = getelementptr inbounds i8, ptr %other, i64 8
  %0 = load i64, ptr %_internal_metadata_, align 8
  %1 = load i64, ptr %_internal_metadata_2, align 8
  store i64 %1, ptr %_internal_metadata_, align 8
  store i64 %0, ptr %_internal_metadata_2, align 8
  %2 = getelementptr inbounds i8, ptr %this, i64 16
  %3 = getelementptr i8, ptr %other, i64 16
  tail call void @llvm.experimental.noalias.scope.decl(metadata !7)
  tail call void @llvm.experimental.noalias.scope.decl(metadata !10)
  br label %for.body.i.i

for.body.i.i:                                     ; preds = %for.body.i.i, %entry
  %__first2.addr.07.i.i = phi ptr [ %incdec.ptr1.i.i, %for.body.i.i ], [ %3, %entry ]
  %__first1.addr.06.i.idx.i = phi i64 [ %__first1.addr.06.i.add.i, %for.body.i.i ], [ 0, %entry ]
  %__first1.addr.06.i.ptr.i = getelementptr inbounds i8, ptr %2, i64 %__first1.addr.06.i.idx.i
  %4 = load i8, ptr %__first1.addr.06.i.ptr.i, align 1, !alias.scope !7, !noalias !10
  %5 = load i8, ptr %__first2.addr.07.i.i, align 1, !alias.scope !10, !noalias !7
  store i8 %5, ptr %__first1.addr.06.i.ptr.i, align 1, !alias.scope !7, !noalias !10
  store i8 %4, ptr %__first2.addr.07.i.i, align 1, !alias.scope !10, !noalias !7
  %__first1.addr.06.i.add.i = add nuw nsw i64 %__first1.addr.06.i.idx.i, 1
  %incdec.ptr1.i.i = getelementptr inbounds i8, ptr %__first2.addr.07.i.i, i64 1
  %cmp.not.i.i = icmp eq i64 %__first1.addr.06.i.add.i, 12
  br i1 %cmp.not.i.i, label %_ZN6google8protobuf8internal7memswapILm12EEEvPcS3_.exit, label %for.body.i.i, !llvm.loop !12

_ZN6google8protobuf8internal7memswapILm12EEEvPcS3_.exit: ; preds = %for.body.i.i
  ret void
}